target datalayout = "e-m:e-p270:32:32-p271:32:32-p272:64:64-i64:64-i128:128-f80:128-n8:16:32:64-S128"
target triple = "x86_64-unknown-linux-gnu"

@_ZN2EA8UnitTest16gpReportFunctionE = dso_local global ptr null, align 8
@.str.9 = private unnamed_addr constant [2 x i8] c"\0A\00", align 1

; Function Attrs: mustprogress uwtable
define dso_local noundef zeroext i1 @_ZN2EA8UnitTest6VerifyEbPKcPNS0_4TestE(i1 noundef zeroext %bValue, ptr noundef %pMessage, ptr noundef %pTestContext) #2 {
entry:
  %bValue.addr = alloca i8, align 1
  %pMessage.addr = alloca ptr, align 8
  %pTestContext.addr = alloca ptr, align 8
  %frombool = zext i1 %bValue to i8
  store i8 %frombool, ptr %bValue.addr, align 1
  store ptr %pMessage, ptr %pMessage.addr, align 8
  store ptr %pTestContext, ptr %pTestContext.addr, align 8
  %0 = load ptr, ptr %pTestContext.addr, align 8
  %tobool = icmp ne ptr %0, null
  br i1 %tobool, label %if.then, label %if.else

if.then:                                          ; preds = %entry
  %1 = load ptr, ptr %pTestContext.addr, align 8
  %2 = load i8, ptr %bValue.addr, align 1
  %tobool1 = trunc i8 %2 to i1
  %3 = load ptr, ptr %pMessage.addr, align 8
  %vtable = load ptr, ptr %1, align 8
  %vfn = getelementptr inbounds ptr, ptr %vtable, i64 9
  %4 = load ptr, ptr %vfn, align 8
  %call = call noundef zeroext i1 %4(ptr noundef nonnull align 8 dereferenceable(80) %1, i1 noundef zeroext %tobool1, ptr noundef %3)
  br label %if.end5

if.else:                                          ; preds = %entry
  %5 = load i8, ptr %bValue.addr, align 1
  %tobool2 = trunc i8 %5 to i1
  br i1 %tobool2, label %if.end, label %land.lhs.true

land.lhs.true:                                    ; preds = %if.else
  %6 = load ptr, ptr @_ZN2EA8UnitTest16gpReportFunctionE, align 8
  %tobool3 = icmp ne ptr %6, null
  br i1 %tobool3, label %if.then4, label %if.end

if.then4:                                         ; preds = %land.lhs.true
  %7 = load ptr, ptr @_ZN2EA8UnitTest16gpReportFunctionE, align 8
  %8 = load ptr, ptr %pMessage.addr, align 8
  call void %7(ptr noundef %8)
  %9 = load ptr, ptr @_ZN2EA8UnitTest16gpReportFunctionE, align 8
  call void %9(ptr noundef @.str.9)
  br label %if.end

if.end:                                           ; preds = %if.then4, %land.lhs.true, %if.else
  br label %if.end5

if.end5:                                          ; preds = %if.end, %if.then
  %10 = load i8, ptr %bValue.addr, align 1
  %tobool6 = trunc i8 %10 to i1
  ret i1 %tobool6
}