; Function Attrs: mustprogress uwtable
define dso_local noundef zeroext i1 @_ZN2EA8UnitTest6VerifyEbPKcPNS0_4TestE(i1 noundef returned zeroext %bValue, ptr noundef %pMessage, ptr noundef %pTestContext) local_unnamed_addr #0 {
entry:
  %tobool.not = icmp eq ptr %pTestContext, null
  br i1 %tobool.not, label %if.else, label %if.then

if.then:                                          ; preds = %entry
  %vtable = load ptr, ptr %pTestContext, align 8
  %vfn = getelementptr inbounds i8, ptr %vtable, i64 72
  %0 = load ptr, ptr %vfn, align 8
  %call = tail call noundef zeroext i1 %0(ptr noundef nonnull align 8 dereferenceable(80) %pTestContext, i1 noundef zeroext %bValue, ptr noundef %pMessage)
  br label %if.end5

if.else:                                          ; preds = %entry
  %1 = load ptr, ptr @_ZN2EA8UnitTest16gpReportFunctionE, align 8
  %tobool3 = icmp eq ptr %1, null
  %or.cond.not = select i1 %bValue, i1 true, i1 %tobool3
  br i1 %or.cond.not, label %if.end5, label %if.then4

if.then4:                                         ; preds = %if.else
  tail call void %1(ptr noundef %pMessage)
  %2 = load ptr, ptr @_ZN2EA8UnitTest16gpReportFunctionE, align 8
  tail call void %2(ptr noundef nonnull @.str.9)
  br label %if.end5

if.end5:                                          ; preds = %if.else, %if.then4, %if.then
  ret i1 %bValue
}